target datalayout = "e-m:e-p270:32:32-p271:32:32-p272:64:64-i64:64-i128:128-f80:128-n8:16:32:64-S128"
target triple = "x86_64-pc-linux-gnu"

%struct.sockaddr_un = type { i16, [108 x i8] }
%struct.optstruct = type { ptr, ptr, ptr, i64, i32, i32, i32, i32, ptr, ptr, ptr }
%struct.addrinfo = type { i32, i32, i32, i32, i32, ptr, ptr, ptr }
%union.__CONST_SOCKADDR_ARG = type { ptr }

@.str.13 = private unnamed_addr constant [12 x i8] c"LocalSocket\00", align 1
@nixsock = global %struct.sockaddr_un zeroinitializer, align 2
@.str.14 = private unnamed_addr constant [50 x i8] c"Could not connect to clamd on LocalSocket %s: %s\0A\00", align 1
@.str.15 = private unnamed_addr constant [5 x i8] c"%lld\00", align 1
@.str.16 = private unnamed_addr constant [10 x i8] c"TCPSocket\00", align 1
@.str.17 = private unnamed_addr constant [8 x i8] c"TCPAddr\00", align 1
@.str.18 = private unnamed_addr constant [4 x i8] c"any\00", align 1
@.str.19 = private unnamed_addr constant [25 x i8] c"Could not lookup %s: %s\0A\00", align 1
@.str.20 = private unnamed_addr constant [1 x i8] zeroinitializer, align 1
@.str.21 = private unnamed_addr constant [29 x i8] c"Can't create the socket: %s\0A\00", align 1
@.str.22 = private unnamed_addr constant [38 x i8] c"Could not connect to clamd on %s: %s\0A\00", align 1

; Function Attrs: nounwind uwtable
define i32 @dconnect(ptr noundef %0) #0 {
  %2 = alloca i32, align 4
  %3 = alloca ptr, align 8
  %4 = alloca i32, align 4
  %5 = alloca i32, align 4
  %6 = alloca ptr, align 8
  %7 = alloca %struct.addrinfo, align 8
  %8 = alloca ptr, align 8
  %9 = alloca ptr, align 8
  %10 = alloca [10 x i8], align 1
  %11 = alloca ptr, align 8
  %12 = alloca %union.__CONST_SOCKADDR_ARG, align 8
  %13 = alloca %union.__CONST_SOCKADDR_ARG, align 8
  store ptr %0, ptr %3, align 8
  %14 = load ptr, ptr %3, align 8
  %15 = call ptr @optget(ptr noundef %14, ptr noundef @.str.13)
  store ptr %15, ptr %6, align 8
  %16 = load ptr, ptr %6, align 8
  %17 = getelementptr inbounds %struct.optstruct, ptr %16, i32 0, i32 4
  %18 = load i32, ptr %17, align 8
  %19 = icmp ne i32 %18, 0
  br i1 %19, label %20, label %43

20:                                               ; preds = %1
  %21 = call i32 @socket(i32 noundef 1, i32 noundef 1, i32 noundef 0) #9
  store i32 %21, ptr %4, align 4
  %22 = icmp sge i32 %21, 0
  br i1 %22, label %23, label %42

23:                                               ; preds = %20
  %24 = load i32, ptr %4, align 4
  store ptr @nixsock, ptr %12, align 8
  %25 = getelementptr inbounds %union.__CONST_SOCKADDR_ARG, ptr %12, i32 0, i32 0
  %26 = load ptr, ptr %25, align 8
  %27 = call i32 @connect(i32 noundef %24, ptr %26, i32 noundef 110)
  %28 = icmp eq i32 %27, 0
  br i1 %28, label %29, label %31

29:                                               ; preds = %23
  %30 = load i32, ptr %4, align 4
  store i32 %30, ptr %2, align 4
  br label %157

31:                                               ; preds = %23
  %32 = load ptr, ptr %6, align 8
  %33 = getelementptr inbounds %struct.optstruct, ptr %32, i32 0, i32 2
  %34 = load ptr, ptr %33, align 8
  %35 = call ptr @__errno_location() #8
  %36 = load i32, ptr %35, align 4
  %37 = call ptr @strerror(i32 noundef %36) #9
  %38 = call i32 (i32, ptr, ...) @logg(i32 noundef 5, ptr noundef @.str.14, ptr noundef %34, ptr noundef %37)
  %39 = load i32, ptr %4, align 4
  %40 = call i32 @close(i32 noundef %39)
  br label %41

41:                                               ; preds = %31
  br label %42

42:                                               ; preds = %41, %20
  br label %43

43:                                               ; preds = %42, %1
  %44 = getelementptr inbounds [10 x i8], ptr %10, i64 0, i64 0
  %45 = load ptr, ptr %3, align 8
  %46 = call ptr @optget(ptr noundef %45, ptr noundef @.str.16)
  %47 = getelementptr inbounds %struct.optstruct, ptr %46, i32 0, i32 3
  %48 = load i64, ptr %47, align 8
  %49 = call i32 (ptr, i64, ptr, ...) @snprintf(ptr noundef %44, i64 noundef 10, ptr noundef @.str.15, i64 noundef %48) #9
  %50 = load ptr, ptr %3, align 8
  %51 = call ptr @optget(ptr noundef %50, ptr noundef @.str.17)
  store ptr %51, ptr %6, align 8
  br label %52

52:                                               ; preds = %152, %91, %43
  %53 = load ptr, ptr %6, align 8
  %54 = icmp ne ptr %53, null
  br i1 %54, label %55, label %156

55:                                               ; preds = %52
  %56 = load ptr, ptr %6, align 8
  %57 = getelementptr inbounds %struct.optstruct, ptr %56, i32 0, i32 4
  %58 = load i32, ptr %57, align 8
  %59 = icmp ne i32 %58, 0
  br i1 %59, label %60, label %152

60:                                               ; preds = %55
  store ptr null, ptr %11, align 8
  %61 = load ptr, ptr %6, align 8
  %62 = getelementptr inbounds %struct.optstruct, ptr %61, i32 0, i32 2
  %63 = load ptr, ptr %62, align 8
  %64 = icmp ne ptr %63, null
  br i1 %64, label %65, label %78

65:                                               ; preds = %60
  %66 = load ptr, ptr %6, align 8
  %67 = getelementptr inbounds %struct.optstruct, ptr %66, i32 0, i32 2
  %68 = load ptr, ptr %67, align 8
  %69 = call i32 @strcmp(ptr noundef %68, ptr noundef @.str.18) #10
  %70 = icmp ne i32 %69, 0
  br i1 %70, label %72, label %71

71:                                               ; preds = %65
  br label %76

72:                                               ; preds = %65
  %73 = load ptr, ptr %6, align 8
  %74 = getelementptr inbounds %struct.optstruct, ptr %73, i32 0, i32 2
  %75 = load ptr, ptr %74, align 8
  br label %76

76:                                               ; preds = %72, %71
  %77 = phi ptr [ null, %71 ], [ %75, %72 ]
  store ptr %77, ptr %11, align 8
  br label %78

78:                                               ; preds = %76, %60
  call void @llvm.memset.p0.i64(ptr align 8 %7, i8 0, i64 48, i1 false)
  %79 = getelementptr inbounds %struct.addrinfo, ptr %7, i32 0, i32 1
  store i32 0, ptr %79, align 4
  %80 = getelementptr inbounds %struct.addrinfo, ptr %7, i32 0, i32 2
  store i32 1, ptr %80, align 8
  %81 = load ptr, ptr %11, align 8
  %82 = getelementptr inbounds [10 x i8], ptr %10, i64 0, i64 0
  %83 = call i32 @getaddrinfo(ptr noundef %81, ptr noundef %82, ptr noundef %7, ptr noundef %8)
  store i32 %83, ptr %5, align 4
  %84 = icmp ne i32 %83, 0
  br i1 %84, label %85, label %99

85:                                               ; preds = %78
  %86 = load ptr, ptr %11, align 8
  %87 = icmp ne ptr %86, null
  br i1 %87, label %88, label %90

88:                                               ; preds = %85
  %89 = load ptr, ptr %11, align 8
  br label %91

90:                                               ; preds = %85
  br label %91

91:                                               ; preds = %90, %88
  %92 = phi ptr [ %89, %88 ], [ @.str.20, %90 ]
  %93 = load i32, ptr %5, align 4
  %94 = call ptr @gai_strerror(i32 noundef %93) #9
  %95 = call i32 (i32, ptr, ...) @logg(i32 noundef 5, ptr noundef @.str.19, ptr noundef %92, ptr noundef %94)
  %96 = load ptr, ptr %6, align 8
  %97 = getelementptr inbounds %struct.optstruct, ptr %96, i32 0, i32 8
  %98 = load ptr, ptr %97, align 8
  store ptr %98, ptr %6, align 8
  br label %52

99:                                               ; preds = %78
  %100 = load ptr, ptr %8, align 8
  store ptr %100, ptr %9, align 8
  br label %101

101:                                              ; preds = %146, %99
  %102 = load ptr, ptr %9, align 8
  %103 = icmp ne ptr %102, null
  br i1 %103, label %104, label %150

104:                                              ; preds = %101
  %105 = load ptr, ptr %9, align 8
  %106 = getelementptr inbounds %struct.addrinfo, ptr %105, i32 0, i32 1
  %107 = load i32, ptr %106, align 4
  %108 = load ptr, ptr %9, align 8
  %109 = getelementptr inbounds %struct.addrinfo, ptr %108, i32 0, i32 2
  %110 = load i32, ptr %109, align 8
  %111 = load ptr, ptr %9, align 8
  %112 = getelementptr inbounds %struct.addrinfo, ptr %111, i32 0, i32 3
  %113 = load i32, ptr %112, align 4
  %114 = call i32 @socket(i32 noundef %107, i32 noundef %110, i32 noundef %113) #9
  store i32 %114, ptr %4, align 4
  %115 = icmp slt i32 %114, 0
  br i1 %115, label %116, label %121

116:                                              ; preds = %104
  %117 = call ptr @__errno_location() #8
  %118 = load i32, ptr %117, align 4
  %119 = call ptr @strerror(i32 noundef %118) #9
  %120 = call i32 (i32, ptr, ...) @logg(i32 noundef 5, ptr noundef @.str.21, ptr noundef %119)
  br label %146

121:                                              ; preds = %104
  %122 = load i32, ptr %4, align 4
  %123 = load ptr, ptr %9, align 8
  %124 = getelementptr inbounds %struct.addrinfo, ptr %123, i32 0, i32 5
  %125 = load ptr, ptr %124, align 8
  store ptr %125, ptr %13, align 8
  %126 = load ptr, ptr %9, align 8
  %127 = getelementptr inbounds %struct.addrinfo, ptr %126, i32 0, i32 4
  %128 = load i32, ptr %127, align 8
  %129 = getelementptr inbounds %union.__CONST_SOCKADDR_ARG, ptr %13, i32 0, i32 0
  %130 = load ptr, ptr %129, align 8
  %131 = call i32 @connect(i32 noundef %122, ptr %130, i32 noundef %128)
  %132 = icmp slt i32 %131, 0
  br i1 %132, label %133, label %143

133:                                              ; preds = %121
  %134 = load ptr, ptr %6, align 8
  %135 = getelementptr inbounds %struct.optstruct, ptr %134, i32 0, i32 2
  %136 = load ptr, ptr %135, align 8
  %137 = call ptr @__errno_location() #8
  %138 = load i32, ptr %137, align 4
  %139 = call ptr @strerror(i32 noundef %138) #9
  %140 = call i32 (i32, ptr, ...) @logg(i32 noundef 5, ptr noundef @.str.22, ptr noundef %136, ptr noundef %139)
  %141 = load i32, ptr %4, align 4
  %142 = call i32 @close(i32 noundef %141)
  br label %146

143:                                              ; preds = %121
  %144 = load ptr, ptr %8, align 8
  call void @freeaddrinfo(ptr noundef %144) #9
  %145 = load i32, ptr %4, align 4
  store i32 %145, ptr %2, align 4
  br label %157

146:                                              ; preds = %133, %116
  %147 = load ptr, ptr %9, align 8
  %148 = getelementptr inbounds %struct.addrinfo, ptr %147, i32 0, i32 7
  %149 = load ptr, ptr %148, align 8
  store ptr %149, ptr %9, align 8
  br label %101

150:                                              ; preds = %101
  %151 = load ptr, ptr %8, align 8
  call void @freeaddrinfo(ptr noundef %151) #9
  br label %152

152:                                              ; preds = %150, %55
  %153 = load ptr, ptr %6, align 8
  %154 = getelementptr inbounds %struct.optstruct, ptr %153, i32 0, i32 8
  %155 = load ptr, ptr %154, align 8
  store ptr %155, ptr %6, align 8
  br label %52

156:                                              ; preds = %52
  store i32 -1, ptr %2, align 4
  br label %157

157:                                              ; preds = %156, %143, %29
  %158 = load i32, ptr %2, align 4
  ret i32 %158
}