; Function Attrs: nounwind uwtable
define i32 @dconnect(ptr noundef %0) local_unnamed_addr #0 {
  %2 = alloca %struct.addrinfo, align 8
  %3 = alloca ptr, align 8
  %4 = alloca [10 x i8], align 1
  %5 = tail call ptr @optget(ptr noundef %0, ptr noundef nonnull @.str.13) #14
  %6 = getelementptr inbounds i8, ptr %5, i64 32
  %7 = load i32, ptr %6, align 8
  %.not = icmp eq i32 %7, 0
  br i1 %.not, label %22, label %8

8:                                                ; preds = %1
  %9 = tail call i32 @socket(i32 noundef 1, i32 noundef 1, i32 noundef 0) #14
  %10 = icmp sgt i32 %9, -1
  br i1 %10, label %11, label %22

11:                                               ; preds = %8
  %12 = tail call i32 @connect(i32 noundef %9, ptr nonnull @nixsock, i32 noundef 110) #14
  %13 = icmp eq i32 %12, 0
  br i1 %13, label %.loopexit, label %14

14:                                               ; preds = %11
  %15 = getelementptr inbounds i8, ptr %5, i64 16
  %16 = load ptr, ptr %15, align 8
  %17 = tail call ptr @__errno_location() #15
  %18 = load i32, ptr %17, align 4
  %19 = tail call ptr @strerror(i32 noundef %18) #14
  %20 = tail call i32 (i32, ptr, ...) @logg(i32 noundef 5, ptr noundef nonnull @.str.14, ptr noundef %16, ptr noundef %19) #14
  %21 = tail call i32 @close(i32 noundef %9) #14
  br label %22

22:                                               ; preds = %8, %14, %1
  %23 = tail call ptr @optget(ptr noundef %0, ptr noundef nonnull @.str.16) #14
  %24 = getelementptr inbounds i8, ptr %23, i64 24
  %25 = load i64, ptr %24, align 8
  %26 = call i32 (ptr, i64, ptr, ...) @snprintf(ptr noundef nonnull dereferenceable(1) %4, i64 noundef 10, ptr noundef nonnull @.str.15, i64 noundef %25) #14
  %27 = tail call ptr @optget(ptr noundef %0, ptr noundef nonnull @.str.17) #14
  %.not3848 = icmp eq ptr %27, null
  br i1 %.not3848, label %.loopexit, label %.lr.ph51

.lr.ph51:                                         ; preds = %22
  %28 = getelementptr inbounds i8, ptr %2, i64 8
  br label %29

29:                                               ; preds = %.lr.ph51, %.backedge
  %.03349 = phi ptr [ %27, %.lr.ph51 ], [ %.033.be, %.backedge ]
  %30 = getelementptr inbounds i8, ptr %.03349, i64 32
  %31 = load i32, ptr %30, align 8
  %.not39 = icmp eq i32 %31, 0
  br i1 %.not39, label %.backedge, label %32

32:                                               ; preds = %29
  %33 = getelementptr inbounds i8, ptr %.03349, i64 16
  %34 = load ptr, ptr %33, align 8
  %.not40 = icmp eq ptr %34, null
  br i1 %.not40, label %37, label %35

35:                                               ; preds = %32
  %36 = call i32 @strcmp(ptr noundef nonnull dereferenceable(1) %34, ptr noundef nonnull dereferenceable(4) @.str.18) #16
  %.not41 = icmp eq i32 %36, 0
  %spec.select = select i1 %.not41, ptr null, ptr %34
  br label %37

37:                                               ; preds = %35, %32
  %.031 = phi ptr [ %spec.select, %35 ], [ null, %32 ]
  call void @llvm.memset.p0.i64(ptr noundef nonnull align 8 dereferenceable(48) %2, i8 0, i64 48, i1 false)
  store i32 1, ptr %28, align 8
  %38 = call i32 @getaddrinfo(ptr noundef %.031, ptr noundef nonnull %4, ptr noundef nonnull %2, ptr noundef nonnull %3) #14
  %.not42 = icmp eq i32 %38, 0
  br i1 %.not42, label %.preheader, label %39

.preheader:                                       ; preds = %37
  %.03245 = load ptr, ptr %3, align 8
  %.not4346 = icmp eq ptr %.03245, null
  br i1 %.not4346, label %._crit_edge, label %.lr.ph

39:                                               ; preds = %37
  %.not44 = icmp eq ptr %.031, null
  %40 = select i1 %.not44, ptr @.str.20, ptr %.031
  %41 = call ptr @gai_strerror(i32 noundef %38) #14
  %42 = call i32 (i32, ptr, ...) @logg(i32 noundef 5, ptr noundef nonnull @.str.19, ptr noundef nonnull %40, ptr noundef %41) #14
  br label %.backedge

.backedge:                                        ; preds = %29, %._crit_edge, %39
  %.033.be.in = getelementptr inbounds i8, ptr %.03349, i64 48
  %.033.be = load ptr, ptr %.033.be.in, align 8
  %.not38 = icmp eq ptr %.033.be, null
  br i1 %.not38, label %.loopexit, label %29

.lr.ph:                                           ; preds = %.preheader, %72
  %.03247 = phi ptr [ %.032, %72 ], [ %.03245, %.preheader ]
  %43 = getelementptr inbounds i8, ptr %.03247, i64 4
  %44 = load i32, ptr %43, align 4
  %45 = getelementptr inbounds i8, ptr %.03247, i64 8
  %46 = load i32, ptr %45, align 8
  %47 = getelementptr inbounds i8, ptr %.03247, i64 12
  %48 = load i32, ptr %47, align 4
  %49 = call i32 @socket(i32 noundef %44, i32 noundef %46, i32 noundef %48) #14
  %50 = icmp slt i32 %49, 0
  br i1 %50, label %51, label %56

51:                                               ; preds = %.lr.ph
  %52 = tail call ptr @__errno_location() #15
  %53 = load i32, ptr %52, align 4
  %54 = call ptr @strerror(i32 noundef %53) #14
  %55 = call i32 (i32, ptr, ...) @logg(i32 noundef 5, ptr noundef nonnull @.str.21, ptr noundef %54) #14
  br label %72

56:                                               ; preds = %.lr.ph
  %57 = getelementptr inbounds i8, ptr %.03247, i64 24
  %58 = load ptr, ptr %57, align 8
  %59 = getelementptr inbounds i8, ptr %.03247, i64 16
  %60 = load i32, ptr %59, align 8
  %61 = call i32 @connect(i32 noundef %49, ptr %58, i32 noundef %60) #14
  %62 = icmp slt i32 %61, 0
  br i1 %62, label %63, label %70

63:                                               ; preds = %56
  %64 = load ptr, ptr %33, align 8
  %65 = tail call ptr @__errno_location() #15
  %66 = load i32, ptr %65, align 4
  %67 = call ptr @strerror(i32 noundef %66) #14
  %68 = call i32 (i32, ptr, ...) @logg(i32 noundef 5, ptr noundef nonnull @.str.22, ptr noundef %64, ptr noundef %67) #14
  %69 = call i32 @close(i32 noundef %49) #14
  br label %72

70:                                               ; preds = %56
  %71 = load ptr, ptr %3, align 8
  call void @freeaddrinfo(ptr noundef %71) #14
  br label %.loopexit

72:                                               ; preds = %63, %51
  %73 = getelementptr inbounds i8, ptr %.03247, i64 40
  %.032 = load ptr, ptr %73, align 8
  %.not43 = icmp eq ptr %.032, null
  br i1 %.not43, label %._crit_edge.loopexit, label %.lr.ph

._crit_edge.loopexit:                             ; preds = %72
  %.pre = load ptr, ptr %3, align 8
  br label %._crit_edge

._crit_edge:                                      ; preds = %._crit_edge.loopexit, %.preheader
  %74 = phi ptr [ %.pre, %._crit_edge.loopexit ], [ null, %.preheader ]
  call void @freeaddrinfo(ptr noundef %74) #14
  br label %.backedge

.loopexit:                                        ; preds = %.backedge, %22, %11, %70
  %.0 = phi i32 [ %49, %70 ], [ %9, %11 ], [ -1, %22 ], [ -1, %.backedge ]
  ret i32 %.0
}